; Function Attrs: null_pointer_is_valid sspstrong uwtable
define internal void @bssmap_uplink_req_conf(ptr noundef %0, ptr noundef %1, ptr noundef %2, i32 noundef %3, i32 noundef %4) #1 {
  %6 = icmp sgt i32 %4, 0
  br i1 %6, label %7, label %13

7:                                                ; preds = %5
  %8 = tail call zeroext i16 @elem_tlv(ptr noundef %0, ptr noundef %1, ptr noundef %2, i8 noundef zeroext 5, i32 noundef 0, i32 noundef 5, i32 noundef %3, i32 noundef %4, ptr noundef null)
  %.not = icmp eq i16 %8, 0
  br i1 %.not, label %13, label %9

9:                                                ; preds = %7
  %10 = zext i16 %8 to i32
  %11 = add i32 %3, %10
  %12 = sub nsw i32 %4, %10
  br label %16

13:                                               ; preds = %7, %5
  %14 = tail call ptr @get_gsm_a_msg_string(i32 noundef 0, i32 noundef 5)
  %15 = tail call ptr (ptr, ptr, ptr, ptr, i32, i32, ptr, ...) @proto_tree_add_expert_format(ptr noundef %1, ptr noundef %2, ptr noundef nonnull @ei_gsm_a_bssmap_missing_mandatory_element, ptr noundef %0, i32 noundef %3, i32 noundef 0, ptr noundef nonnull @.str.139, i32 noundef 5, ptr noundef %14, ptr noundef nonnull @.str.137)
  br label %16

16:                                               ; preds = %13, %9
  %.047 = phi i32 [ %11, %9 ], [ %3, %13 ]
  %.0 = phi i32 [ %12, %9 ], [ %4, %13 ]
  %17 = icmp slt i32 %.0, 1
  br i1 %17, label %36, label %18

18:                                               ; preds = %16
  %19 = tail call zeroext i16 @elem_tlv(ptr noundef %0, ptr noundef %1, ptr noundef %2, i8 noundef zeroext 108, i32 noundef 0, i32 noundef 108, i32 noundef %.047, i32 noundef %.0, ptr noundef null)
  %20 = zext i16 %19 to i32
  %21 = add i32 %.047, %20
  %22 = sub nsw i32 %.0, %20
  %23 = icmp sgt i32 %22, 0
  br i1 %23, label %24, label %30

24:                                               ; preds = %18
  %25 = tail call zeroext i16 @elem_tlv(ptr noundef %0, ptr noundef %1, ptr noundef %2, i8 noundef zeroext 23, i32 noundef 0, i32 noundef 23, i32 noundef %21, i32 noundef %22, ptr noundef null)
  %.not55 = icmp eq i16 %25, 0
  br i1 %.not55, label %30, label %26

26:                                               ; preds = %24
  %27 = zext i16 %25 to i32
  %28 = add i32 %21, %27
  %29 = sub nsw i32 %22, %27
  br label %33

30:                                               ; preds = %24, %18
  %31 = tail call ptr @get_gsm_a_msg_string(i32 noundef 0, i32 noundef 23)
  %32 = tail call ptr (ptr, ptr, ptr, ptr, i32, i32, ptr, ...) @proto_tree_add_expert_format(ptr noundef %1, ptr noundef %2, ptr noundef nonnull @ei_gsm_a_bssmap_missing_mandatory_element, ptr noundef %0, i32 noundef %21, i32 noundef 0, ptr noundef nonnull @.str.139, i32 noundef 23, ptr noundef %31, ptr noundef nonnull @.str.137)
  br label %33

33:                                               ; preds = %30, %26
  %.249 = phi i32 [ %28, %26 ], [ %21, %30 ]
  %.2 = phi i32 [ %29, %26 ], [ %22, %30 ]
  %.not56 = icmp eq i32 %.2, 0
  br i1 %.not56, label %36, label %34

34:                                               ; preds = %33
  %35 = tail call ptr @proto_tree_add_expert(ptr noundef %1, ptr noundef %2, ptr noundef nonnull @ei_gsm_a_bssmap_extraneous_data, ptr noundef %0, i32 noundef %.249, i32 noundef %.2)
  br label %36

36:                                               ; preds = %33, %34, %16
  ret void
}